; Function Attrs: null_pointer_is_valid sspstrong uwtable
define hidden noalias ptr @extcap_get_complex_as_string(ptr noundef readonly captures(address_is_null) %0) local_unnamed_addr #0 {
  %.not = icmp eq ptr %0, null
  br i1 %.not, label %6, label %2

2:                                                ; preds = %1
  %3 = getelementptr inbounds nuw i8, ptr %0, i64 8
  %4 = load ptr, ptr %3, align 8
  %5 = tail call noalias ptr @g_strdup(ptr noundef %4)
  br label %6

6:                                                ; preds = %1, %2
  %7 = phi ptr [ %5, %2 ], [ null, %1 ]
  ret ptr %7
}